; Function Attrs: mustprogress uwtable
define void @_ZNK10TimerGroup7SumLineB5cxx11ERK5Timer(ptr dead_on_unwind noalias writable sret(%"class.std::__cxx11::basic_string") align 8 %0, ptr noundef nonnull align 8 dereferenceable(56) %1, ptr noundef nonnull align 8 dereferenceable(72) %2) local_unnamed_addr #3 align 2 personality ptr @__gxx_personality_v0 {
  %4 = alloca %class.Timer, align 8
  call void @_ZN5TimerC1Ev(ptr noundef nonnull align 8 dereferenceable(72) %4)
  %5 = load ptr, ptr %1, align 8
  %6 = invoke noundef nonnull align 8 dereferenceable(32) ptr @_ZNSt7__cxx1112basic_stringIcSt11char_traitsIcESaIcEEaSERKS4_(ptr noundef nonnull align 8 dereferenceable(32) %4, ptr noundef nonnull align 8 dereferenceable(32) %5)
          to label %.noexc unwind label %.loopexit.split-lp

.noexc:                                           ; preds = %3
  %7 = getelementptr inbounds nuw i8, ptr %4, i64 32
  %8 = getelementptr inbounds nuw i8, ptr %5, i64 32
  call void @llvm.memcpy.p0.p0.i64(ptr noundef nonnull align 8 dereferenceable(40) %7, ptr noundef nonnull align 8 dereferenceable(40) %8, i64 40, i1 false)
  %9 = getelementptr inbounds nuw i8, ptr %1, i64 8
  %10 = load ptr, ptr %9, align 8
  %11 = load ptr, ptr %1, align 8
  %12 = ptrtoint ptr %10 to i64
  %13 = ptrtoint ptr %11 to i64
  %14 = sub i64 %12, %13
  %15 = sdiv exact i64 %14, 72
  %16 = icmp ugt i64 %15, 1
  br i1 %16, label %.lr.ph.i, label %_ZNK10TimerGroup3SumER5Timer.exit

.lr.ph.i:                                         ; preds = %.noexc, %.noexc3
  %17 = phi ptr [ %23, %.noexc3 ], [ %11, %.noexc ]
  %18 = phi i64 [ %21, %.noexc3 ], [ 1, %.noexc ]
  %.06.i = phi i32 [ %20, %.noexc3 ], [ 1, %.noexc ]
  %19 = getelementptr inbounds %class.Timer, ptr %17, i64 %18
  invoke void @_ZN5TimerpLERKS_(ptr noundef nonnull align 8 dereferenceable(72) %4, ptr noundef nonnull align 8 dereferenceable(72) %19)
          to label %.noexc3 unwind label %.loopexit

.noexc3:                                          ; preds = %.lr.ph.i
  %20 = add i32 %.06.i, 1
  %21 = zext i32 %20 to i64
  %22 = load ptr, ptr %9, align 8
  %23 = load ptr, ptr %1, align 8
  %24 = ptrtoint ptr %22 to i64
  %25 = ptrtoint ptr %23 to i64
  %26 = sub i64 %24, %25
  %27 = sdiv exact i64 %26, 72
  %28 = icmp ugt i64 %27, %21
  br i1 %28, label %.lr.ph.i, label %_ZNK10TimerGroup3SumER5Timer.exit, !llvm.loop !16

_ZNK10TimerGroup3SumER5Timer.exit:                ; preds = %.noexc3, %.noexc
  %29 = getelementptr inbounds nuw i8, ptr %1, i64 24
  invoke void @_ZNK5Timer7SumLineERKS_RKNSt7__cxx1112basic_stringIcSt11char_traitsIcESaIcEEE(ptr dead_on_unwind writable sret(%"class.std::__cxx11::basic_string") align 8 %0, ptr noundef nonnull align 8 dereferenceable(72) %4, ptr noundef nonnull align 8 dereferenceable(72) %2, ptr noundef nonnull align 8 dereferenceable(32) %29)
          to label %30 unwind label %.loopexit.split-lp

30:                                               ; preds = %_ZNK10TimerGroup3SumER5Timer.exit
  call void @_ZN5TimerD1Ev(ptr noundef nonnull align 8 dereferenceable(72) %4) #15
  ret void

.loopexit:                                        ; preds = %.lr.ph.i
  %lpad.loopexit = landingpad { ptr, i32 }
          cleanup
  br label %31

.loopexit.split-lp:                               ; preds = %_ZNK10TimerGroup3SumER5Timer.exit, %3
  %lpad.loopexit.split-lp = landingpad { ptr, i32 }
          cleanup
  br label %31

31:                                               ; preds = %.loopexit.split-lp, %.loopexit
  %lpad.phi = phi { ptr, i32 } [ %lpad.loopexit, %.loopexit ], [ %lpad.loopexit.split-lp, %.loopexit.split-lp ]
  call void @_ZN5TimerD1Ev(ptr noundef nonnull align 8 dereferenceable(72) %4) #15
  resume { ptr, i32 } %lpad.phi
}